target datalayout = "e-m:e-p270:32:32-p271:32:32-p272:64:64-i64:64-i128:128-f80:128-n8:16:32:64-S128"
target triple = "x86_64-pc-linux-gnu"

%struct.MemBuffer = type { i64, i64, i64, i64, ptr }
%struct.WebPData = type { ptr, i64 }
%struct.WebPDemuxer = type { %struct.MemBuffer, i32, i32, i32, i32, i32, i32, i32, i32, ptr, ptr, ptr, ptr }
%struct.Frame = type { i32, i32, i32, i32, i32, i32, i32, i32, i32, i32, [2 x %struct.ChunkData], ptr }
%struct.ChunkData = type { i64, i64 }
%struct.WebPIterator = type { i32, i32, i32, i32, i32, i32, i32, i32, i32, %struct.WebPData, i32, i32, [2 x i32], ptr }

; Function Attrs: nounwind uwtable
define internal ptr @GetFramePayload(ptr noundef %0, ptr noundef %1, ptr noundef %2) #0 {
  %4 = alloca ptr, align 8
  %5 = alloca ptr, align 8
  %6 = alloca ptr, align 8
  %7 = alloca ptr, align 8
  %8 = alloca ptr, align 8
  %9 = alloca ptr, align 8
  %10 = alloca i64, align 8
  %11 = alloca i64, align 8
  store ptr %0, ptr %5, align 8, !tbaa !34
  store ptr %1, ptr %6, align 8, !tbaa !40
  store ptr %2, ptr %7, align 8, !tbaa !115
  %12 = load ptr, ptr %7, align 8, !tbaa !115
  store i64 0, ptr %12, align 8, !tbaa !35
  %13 = load ptr, ptr %6, align 8, !tbaa !40
  %14 = icmp ne ptr %13, null
  br i1 %14, label %15, label %69

15:                                               ; preds = %3
  call void @llvm.lifetime.start.p0(i64 8, ptr %8) #7
  %16 = load ptr, ptr %6, align 8, !tbaa !40
  %17 = getelementptr inbounds nuw %struct.Frame, ptr %16, i32 0, i32 10
  %18 = getelementptr inbounds [2 x %struct.ChunkData], ptr %17, i64 0, i64 0
  store ptr %18, ptr %8, align 8, !tbaa !10
  call void @llvm.lifetime.start.p0(i64 8, ptr %9) #7
  %19 = load ptr, ptr %6, align 8, !tbaa !40
  %20 = getelementptr inbounds nuw %struct.Frame, ptr %19, i32 0, i32 10
  %21 = getelementptr inbounds [2 x %struct.ChunkData], ptr %20, i64 0, i64 0
  %22 = getelementptr inbounds %struct.ChunkData, ptr %21, i64 1
  store ptr %22, ptr %9, align 8, !tbaa !10
  call void @llvm.lifetime.start.p0(i64 8, ptr %10) #7
  %23 = load ptr, ptr %8, align 8, !tbaa !10
  %24 = getelementptr inbounds nuw %struct.ChunkData, ptr %23, i32 0, i32 0
  %25 = load i64, ptr %24, align 8, !tbaa !83
  store i64 %25, ptr %10, align 8, !tbaa !35
  %26 = load ptr, ptr %8, align 8, !tbaa !10
  %27 = getelementptr inbounds nuw %struct.ChunkData, ptr %26, i32 0, i32 1
  %28 = load i64, ptr %27, align 8, !tbaa !84
  %29 = load ptr, ptr %7, align 8, !tbaa !115
  store i64 %28, ptr %29, align 8, !tbaa !35
  %30 = load ptr, ptr %9, align 8, !tbaa !10
  %31 = getelementptr inbounds nuw %struct.ChunkData, ptr %30, i32 0, i32 1
  %32 = load i64, ptr %31, align 8, !tbaa !84
  %33 = icmp ugt i64 %32, 0
  br i1 %33, label %34, label %65

34:                                               ; preds = %15
  call void @llvm.lifetime.start.p0(i64 8, ptr %11) #7
  %35 = load ptr, ptr %8, align 8, !tbaa !10
  %36 = getelementptr inbounds nuw %struct.ChunkData, ptr %35, i32 0, i32 0
  %37 = load i64, ptr %36, align 8, !tbaa !83
  %38 = icmp ugt i64 %37, 0
  br i1 %38, label %39, label %51

39:                                               ; preds = %34
  %40 = load ptr, ptr %8, align 8, !tbaa !10
  %41 = getelementptr inbounds nuw %struct.ChunkData, ptr %40, i32 0, i32 0
  %42 = load i64, ptr %41, align 8, !tbaa !83
  %43 = load ptr, ptr %9, align 8, !tbaa !10
  %44 = getelementptr inbounds nuw %struct.ChunkData, ptr %43, i32 0, i32 0
  %45 = load i64, ptr %44, align 8, !tbaa !83
  %46 = load ptr, ptr %9, align 8, !tbaa !10
  %47 = getelementptr inbounds nuw %struct.ChunkData, ptr %46, i32 0, i32 1
  %48 = load i64, ptr %47, align 8, !tbaa !84
  %49 = add i64 %45, %48
  %50 = sub i64 %42, %49
  br label %52

51:                                               ; preds = %34
  br label %52

52:                                               ; preds = %51, %39
  %53 = phi i64 [ %50, %39 ], [ 0, %51 ]
  store i64 %53, ptr %11, align 8, !tbaa !35
  %54 = load ptr, ptr %9, align 8, !tbaa !10
  %55 = getelementptr inbounds nuw %struct.ChunkData, ptr %54, i32 0, i32 0
  %56 = load i64, ptr %55, align 8, !tbaa !83
  store i64 %56, ptr %10, align 8, !tbaa !35
  %57 = load ptr, ptr %9, align 8, !tbaa !10
  %58 = getelementptr inbounds nuw %struct.ChunkData, ptr %57, i32 0, i32 1
  %59 = load i64, ptr %58, align 8, !tbaa !84
  %60 = load i64, ptr %11, align 8, !tbaa !35
  %61 = add i64 %59, %60
  %62 = load ptr, ptr %7, align 8, !tbaa !115
  %63 = load i64, ptr %62, align 8, !tbaa !35
  %64 = add i64 %63, %61
  store i64 %64, ptr %62, align 8, !tbaa !35
  call void @llvm.lifetime.end.p0(i64 8, ptr %11) #7
  br label %65

65:                                               ; preds = %52, %15
  %66 = load ptr, ptr %5, align 8, !tbaa !34
  %67 = load i64, ptr %10, align 8, !tbaa !35
  %68 = getelementptr inbounds nuw i8, ptr %66, i64 %67
  store ptr %68, ptr %4, align 8
  call void @llvm.lifetime.end.p0(i64 8, ptr %10) #7
  call void @llvm.lifetime.end.p0(i64 8, ptr %9) #7
  call void @llvm.lifetime.end.p0(i64 8, ptr %8) #7
  br label %70

69:                                               ; preds = %3
  store ptr null, ptr %4, align 8
  br label %70

70:                                               ; preds = %69, %65
  %71 = load ptr, ptr %4, align 8
  ret ptr %71
}

; Function Attrs: nounwind uwtable
define internal i32 @SynthesizeFrame(ptr noundef %0, ptr noundef %1, ptr noundef %2) #0 {
  %4 = alloca i32, align 4
  %5 = alloca ptr, align 8
  %6 = alloca ptr, align 8
  %7 = alloca ptr, align 8
  %8 = alloca ptr, align 8
  %9 = alloca i64, align 8
  %10 = alloca ptr, align 8
  %11 = alloca i32, align 4
  store ptr %0, ptr %5, align 8, !tbaa !16
  store ptr %1, ptr %6, align 8, !tbaa !40
  store ptr %2, ptr %7, align 8, !tbaa !64
  call void @llvm.lifetime.start.p0(i64 8, ptr %8) #7
  %12 = load ptr, ptr %5, align 8, !tbaa !16
  %13 = getelementptr inbounds nuw %struct.WebPDemuxer, ptr %12, i32 0, i32 0
  %14 = getelementptr inbounds nuw %struct.MemBuffer, ptr %13, i32 0, i32 4
  %15 = load ptr, ptr %14, align 8, !tbaa !73
  store ptr %15, ptr %8, align 8, !tbaa !34
  call void @llvm.lifetime.start.p0(i64 8, ptr %9) #7
  store i64 0, ptr %9, align 8, !tbaa !35
  call void @llvm.lifetime.start.p0(i64 8, ptr %10) #7
  %16 = load ptr, ptr %8, align 8, !tbaa !34
  %17 = load ptr, ptr %6, align 8, !tbaa !40
  %18 = call ptr @GetFramePayload(ptr noundef %16, ptr noundef %17, ptr noundef %9)
  store ptr %18, ptr %10, align 8, !tbaa !34
  %19 = load ptr, ptr %10, align 8, !tbaa !34
  %20 = icmp eq ptr %19, null
  br i1 %20, label %21, label %22

21:                                               ; preds = %3
  store i32 0, ptr %4, align 4
  store i32 1, ptr %11, align 4
  br label %86

22:                                               ; preds = %3
  %23 = load ptr, ptr %6, align 8, !tbaa !40
  %24 = getelementptr inbounds nuw %struct.Frame, ptr %23, i32 0, i32 8
  %25 = load i32, ptr %24, align 8, !tbaa !89
  %26 = load ptr, ptr %7, align 8, !tbaa !64
  %27 = getelementptr inbounds nuw %struct.WebPIterator, ptr %26, i32 0, i32 0
  store i32 %25, ptr %27, align 8, !tbaa !68
  %28 = load ptr, ptr %5, align 8, !tbaa !16
  %29 = getelementptr inbounds nuw %struct.WebPDemuxer, ptr %28, i32 0, i32 8
  %30 = load i32, ptr %29, align 4, !tbaa !48
  %31 = load ptr, ptr %7, align 8, !tbaa !64
  %32 = getelementptr inbounds nuw %struct.WebPIterator, ptr %31, i32 0, i32 1
  store i32 %30, ptr %32, align 4, !tbaa !103
  %33 = load ptr, ptr %6, align 8, !tbaa !40
  %34 = getelementptr inbounds nuw %struct.Frame, ptr %33, i32 0, i32 0
  %35 = load i32, ptr %34, align 8, !tbaa !96
  %36 = load ptr, ptr %7, align 8, !tbaa !64
  %37 = getelementptr inbounds nuw %struct.WebPIterator, ptr %36, i32 0, i32 2
  store i32 %35, ptr %37, align 8, !tbaa !104
  %38 = load ptr, ptr %6, align 8, !tbaa !40
  %39 = getelementptr inbounds nuw %struct.Frame, ptr %38, i32 0, i32 1
  %40 = load i32, ptr %39, align 4, !tbaa !97
  %41 = load ptr, ptr %7, align 8, !tbaa !64
  %42 = getelementptr inbounds nuw %struct.WebPIterator, ptr %41, i32 0, i32 3
  store i32 %40, ptr %42, align 4, !tbaa !105
  %43 = load ptr, ptr %6, align 8, !tbaa !40
  %44 = getelementptr inbounds nuw %struct.Frame, ptr %43, i32 0, i32 2
  %45 = load i32, ptr %44, align 8, !tbaa !41
  %46 = load ptr, ptr %7, align 8, !tbaa !64
  %47 = getelementptr inbounds nuw %struct.WebPIterator, ptr %46, i32 0, i32 4
  store i32 %45, ptr %47, align 8, !tbaa !106
  %48 = load ptr, ptr %6, align 8, !tbaa !40
  %49 = getelementptr inbounds nuw %struct.Frame, ptr %48, i32 0, i32 3
  %50 = load i32, ptr %49, align 4, !tbaa !44
  %51 = load ptr, ptr %7, align 8, !tbaa !64
  %52 = getelementptr inbounds nuw %struct.WebPIterator, ptr %51, i32 0, i32 5
  store i32 %50, ptr %52, align 4, !tbaa !107
  %53 = load ptr, ptr %6, align 8, !tbaa !40
  %54 = getelementptr inbounds nuw %struct.Frame, ptr %53, i32 0, i32 4
  %55 = load i32, ptr %54, align 8, !tbaa !46
  %56 = load ptr, ptr %7, align 8, !tbaa !64
  %57 = getelementptr inbounds nuw %struct.WebPIterator, ptr %56, i32 0, i32 10
  store i32 %55, ptr %57, align 8, !tbaa !108
  %58 = load ptr, ptr %6, align 8, !tbaa !40
  %59 = getelementptr inbounds nuw %struct.Frame, ptr %58, i32 0, i32 5
  %60 = load i32, ptr %59, align 4, !tbaa !98
  %61 = load ptr, ptr %7, align 8, !tbaa !64
  %62 = getelementptr inbounds nuw %struct.WebPIterator, ptr %61, i32 0, i32 6
  store i32 %60, ptr %62, align 8, !tbaa !109
  %63 = load ptr, ptr %6, align 8, !tbaa !40
  %64 = getelementptr inbounds nuw %struct.Frame, ptr %63, i32 0, i32 6
  %65 = load i32, ptr %64, align 8, !tbaa !99
  %66 = load ptr, ptr %7, align 8, !tbaa !64
  %67 = getelementptr inbounds nuw %struct.WebPIterator, ptr %66, i32 0, i32 7
  store i32 %65, ptr %67, align 4, !tbaa !110
  %68 = load ptr, ptr %6, align 8, !tbaa !40
  %69 = getelementptr inbounds nuw %struct.Frame, ptr %68, i32 0, i32 7
  %70 = load i32, ptr %69, align 4, !tbaa !100
  %71 = load ptr, ptr %7, align 8, !tbaa !64
  %72 = getelementptr inbounds nuw %struct.WebPIterator, ptr %71, i32 0, i32 11
  store i32 %70, ptr %72, align 4, !tbaa !111
  %73 = load ptr, ptr %6, align 8, !tbaa !40
  %74 = getelementptr inbounds nuw %struct.Frame, ptr %73, i32 0, i32 9
  %75 = load i32, ptr %74, align 4, !tbaa !90
  %76 = load ptr, ptr %7, align 8, !tbaa !64
  %77 = getelementptr inbounds nuw %struct.WebPIterator, ptr %76, i32 0, i32 8
  store i32 %75, ptr %77, align 8, !tbaa !112
  %78 = load ptr, ptr %10, align 8, !tbaa !34
  %79 = load ptr, ptr %7, align 8, !tbaa !64
  %80 = getelementptr inbounds nuw %struct.WebPIterator, ptr %79, i32 0, i32 9
  %81 = getelementptr inbounds nuw %struct.WebPData, ptr %80, i32 0, i32 0
  store ptr %78, ptr %81, align 8, !tbaa !113
  %82 = load i64, ptr %9, align 8, !tbaa !35
  %83 = load ptr, ptr %7, align 8, !tbaa !64
  %84 = getelementptr inbounds nuw %struct.WebPIterator, ptr %83, i32 0, i32 9
  %85 = getelementptr inbounds nuw %struct.WebPData, ptr %84, i32 0, i32 1
  store i64 %82, ptr %85, align 8, !tbaa !114
  store i32 1, ptr %4, align 4
  store i32 1, ptr %11, align 4
  br label %86

86:                                               ; preds = %22, %21
  call void @llvm.lifetime.end.p0(i64 8, ptr %10) #7
  call void @llvm.lifetime.end.p0(i64 8, ptr %9) #7
  call void @llvm.lifetime.end.p0(i64 8, ptr %8) #7
  %87 = load i32, ptr %4, align 4
  ret i32 %87
}

; Function Attrs: nounwind uwtable
define internal ptr @GetFrame(ptr noundef %0, i32 noundef %1) #0 {
  %3 = alloca ptr, align 8
  %4 = alloca i32, align 4
  %5 = alloca ptr, align 8
  store ptr %0, ptr %3, align 8, !tbaa !16
  store i32 %1, ptr %4, align 4, !tbaa !8
  call void @llvm.lifetime.start.p0(i64 8, ptr %5) #7
  %6 = load ptr, ptr %3, align 8, !tbaa !16
  %7 = getelementptr inbounds nuw %struct.WebPDemuxer, ptr %6, i32 0, i32 9
  %8 = load ptr, ptr %7, align 8, !tbaa !55
  store ptr %8, ptr %5, align 8, !tbaa !40
  br label %9

9:                                                ; preds = %20, %2
  %10 = load ptr, ptr %5, align 8, !tbaa !40
  %11 = icmp ne ptr %10, null
  br i1 %11, label %12, label %24

12:                                               ; preds = %9
  %13 = load i32, ptr %4, align 4, !tbaa !8
  %14 = load ptr, ptr %5, align 8, !tbaa !40
  %15 = getelementptr inbounds nuw %struct.Frame, ptr %14, i32 0, i32 8
  %16 = load i32, ptr %15, align 8, !tbaa !89
  %17 = icmp eq i32 %13, %16
  br i1 %17, label %18, label %19

18:                                               ; preds = %12
  br label %24

19:                                               ; preds = %12
  br label %20

20:                                               ; preds = %19
  %21 = load ptr, ptr %5, align 8, !tbaa !40
  %22 = getelementptr inbounds nuw %struct.Frame, ptr %21, i32 0, i32 11
  %23 = load ptr, ptr %22, align 8, !tbaa !56
  store ptr %23, ptr %5, align 8, !tbaa !40
  br label %9, !llvm.loop !102

24:                                               ; preds = %18, %9
  %25 = load ptr, ptr %5, align 8, !tbaa !40
  call void @llvm.lifetime.end.p0(i64 8, ptr %5) #7
  ret ptr %25
}

; Function Attrs: nounwind uwtable
define internal i32 @SetFrame(i32 noundef %0, ptr noundef %1) #0 {
  %3 = alloca i32, align 4
  %4 = alloca i32, align 4
  %5 = alloca ptr, align 8
  %6 = alloca ptr, align 8
  %7 = alloca ptr, align 8
  %8 = alloca i32, align 4
  store i32 %0, ptr %4, align 4, !tbaa !8
  store ptr %1, ptr %5, align 8, !tbaa !64
  call void @llvm.lifetime.start.p0(i64 8, ptr %6) #7
  call void @llvm.lifetime.start.p0(i64 8, ptr %7) #7
  %9 = load ptr, ptr %5, align 8, !tbaa !64
  %10 = getelementptr inbounds nuw %struct.WebPIterator, ptr %9, i32 0, i32 13
  %11 = load ptr, ptr %10, align 8, !tbaa !66
  store ptr %11, ptr %7, align 8, !tbaa !16
  %12 = load ptr, ptr %7, align 8, !tbaa !16
  %13 = icmp eq ptr %12, null
  br i1 %13, label %17, label %14

14:                                               ; preds = %2
  %15 = load i32, ptr %4, align 4, !tbaa !8
  %16 = icmp slt i32 %15, 0
  br i1 %16, label %17, label %18

17:                                               ; preds = %14, %2
  store i32 0, ptr %3, align 4
  store i32 1, ptr %8, align 4
  br label %44

18:                                               ; preds = %14
  %19 = load i32, ptr %4, align 4, !tbaa !8
  %20 = load ptr, ptr %7, align 8, !tbaa !16
  %21 = getelementptr inbounds nuw %struct.WebPDemuxer, ptr %20, i32 0, i32 8
  %22 = load i32, ptr %21, align 4, !tbaa !48
  %23 = icmp sgt i32 %19, %22
  br i1 %23, label %24, label %25

24:                                               ; preds = %18
  store i32 0, ptr %3, align 4
  store i32 1, ptr %8, align 4
  br label %44

25:                                               ; preds = %18
  %26 = load i32, ptr %4, align 4, !tbaa !8
  %27 = icmp eq i32 %26, 0
  br i1 %27, label %28, label %32

28:                                               ; preds = %25
  %29 = load ptr, ptr %7, align 8, !tbaa !16
  %30 = getelementptr inbounds nuw %struct.WebPDemuxer, ptr %29, i32 0, i32 8
  %31 = load i32, ptr %30, align 4, !tbaa !48
  store i32 %31, ptr %4, align 4, !tbaa !8
  br label %32

32:                                               ; preds = %28, %25
  %33 = load ptr, ptr %7, align 8, !tbaa !16
  %34 = load i32, ptr %4, align 4, !tbaa !8
  %35 = call ptr @GetFrame(ptr noundef %33, i32 noundef %34)
  store ptr %35, ptr %6, align 8, !tbaa !40
  %36 = load ptr, ptr %6, align 8, !tbaa !40
  %37 = icmp eq ptr %36, null
  br i1 %37, label %38, label %39

38:                                               ; preds = %32
  store i32 0, ptr %3, align 4
  store i32 1, ptr %8, align 4
  br label %44

39:                                               ; preds = %32
  %40 = load ptr, ptr %7, align 8, !tbaa !16
  %41 = load ptr, ptr %6, align 8, !tbaa !40
  %42 = load ptr, ptr %5, align 8, !tbaa !64
  %43 = call i32 @SynthesizeFrame(ptr noundef %40, ptr noundef %41, ptr noundef %42)
  store i32 %43, ptr %3, align 4
  store i32 1, ptr %8, align 4
  br label %44

44:                                               ; preds = %39, %38, %24, %17
  call void @llvm.lifetime.end.p0(i64 8, ptr %7) #7
  call void @llvm.lifetime.end.p0(i64 8, ptr %6) #7
  %45 = load i32, ptr %3, align 4
  ret i32 %45
}

; Function Attrs: nounwind uwtable
define i32 @WebPDemuxPrevFrame(ptr noundef %0) #0 {
  %2 = alloca i32, align 4
  %3 = alloca ptr, align 8
  store ptr %0, ptr %3, align 8, !tbaa !64
  %4 = load ptr, ptr %3, align 8, !tbaa !64
  %5 = icmp eq ptr %4, null
  br i1 %5, label %6, label %7

6:                                                ; preds = %1
  store i32 0, ptr %2, align 4
  br label %20

7:                                                ; preds = %1
  %8 = load ptr, ptr %3, align 8, !tbaa !64
  %9 = getelementptr inbounds nuw %struct.WebPIterator, ptr %8, i32 0, i32 0
  %10 = load i32, ptr %9, align 8, !tbaa !68
  %11 = icmp sle i32 %10, 1
  br i1 %11, label %12, label %13

12:                                               ; preds = %7
  store i32 0, ptr %2, align 4
  br label %20

13:                                               ; preds = %7
  %14 = load ptr, ptr %3, align 8, !tbaa !64
  %15 = getelementptr inbounds nuw %struct.WebPIterator, ptr %14, i32 0, i32 0
  %16 = load i32, ptr %15, align 8, !tbaa !68
  %17 = sub nsw i32 %16, 1
  %18 = load ptr, ptr %3, align 8, !tbaa !64
  %19 = call i32 @SetFrame(i32 noundef %17, ptr noundef %18)
  store i32 %19, ptr %2, align 4
  br label %20

20:                                               ; preds = %13, %12, %6
  %21 = load i32, ptr %2, align 4
  ret i32 %21
}