; Function Attrs: nofree norecurse nosync nounwind memory(read, argmem: readwrite, inaccessiblemem: none) uwtable
define range(i32 0, 2) i32 @WebPDemuxPrevFrame(ptr noundef captures(address_is_null) %0) local_unnamed_addr #5 {
  %2 = icmp eq ptr %0, null
  br i1 %2, label %SetFrame.exit, label %3

3:                                                ; preds = %1
  %4 = load i32, ptr %0, align 8, !tbaa !60
  %5 = icmp slt i32 %4, 2
  br i1 %5, label %SetFrame.exit, label %6

6:                                                ; preds = %3
  %7 = add nsw i32 %4, -1
  %8 = getelementptr inbounds nuw i8, ptr %0, i64 72
  %9 = load ptr, ptr %8, align 8, !tbaa !56
  %10 = icmp eq ptr %9, null
  br i1 %10, label %SetFrame.exit, label %11

11:                                               ; preds = %6
  %12 = getelementptr inbounds nuw i8, ptr %9, i64 68
  %13 = load i32, ptr %12, align 4, !tbaa !44
  %14 = icmp sgt i32 %7, %13
  br i1 %14, label %SetFrame.exit, label %.preheader

.preheader:                                       ; preds = %11, %15
  %.pn.i.i = phi ptr [ %.0.i.i, %15 ], [ %9, %11 ]
  %.0.in.i.i = getelementptr inbounds nuw i8, ptr %.pn.i.i, i64 72
  %.0.i.i = load ptr, ptr %.0.in.i.i, align 8, !tbaa !41
  %.not.i.i = icmp eq ptr %.0.i.i, null
  br i1 %.not.i.i, label %SetFrame.exit, label %15

15:                                               ; preds = %.preheader
  %16 = getelementptr inbounds nuw i8, ptr %.0.i.i, i64 32
  %17 = load i32, ptr %16, align 8, !tbaa !39
  %18 = icmp eq i32 %7, %17
  br i1 %18, label %GetFrame.exit.i, label %.preheader, !llvm.loop !58

GetFrame.exit.i:                                  ; preds = %15
  %19 = getelementptr inbounds nuw i8, ptr %9, i64 32
  %20 = load ptr, ptr %19, align 8, !tbaa !59
  %21 = getelementptr inbounds nuw i8, ptr %.0.i.i, i64 40
  %22 = load i64, ptr %21, align 8, !tbaa !28
  %23 = getelementptr inbounds nuw i8, ptr %.0.i.i, i64 48
  %24 = load i64, ptr %23, align 8, !tbaa !30
  %25 = getelementptr inbounds nuw i8, ptr %.0.i.i, i64 64
  %26 = load i64, ptr %25, align 8, !tbaa !30
  %.not.i.i.i = icmp eq i64 %26, 0
  br i1 %.not.i.i.i, label %GetFramePayload.exit.i.i, label %27

27:                                               ; preds = %GetFrame.exit.i
  %28 = getelementptr inbounds nuw i8, ptr %.0.i.i, i64 56
  %.not22.i.i.i = icmp eq i64 %22, 0
  %.pre.i.i.i = load i64, ptr %28, align 8, !tbaa !28
  %29 = add i64 %26, %.pre.i.i.i
  %30 = sub i64 %22, %29
  %31 = select i1 %.not22.i.i.i, i64 0, i64 %30
  %32 = add i64 %26, %24
  %33 = add i64 %32, %31
  br label %GetFramePayload.exit.i.i

GetFramePayload.exit.i.i:                         ; preds = %27, %GetFrame.exit.i
  %.030.i.i = phi i64 [ %24, %GetFrame.exit.i ], [ %33, %27 ]
  %.018.i.i.i = phi i64 [ %22, %GetFrame.exit.i ], [ %.pre.i.i.i, %27 ]
  %34 = icmp eq ptr %20, null
  br i1 %34, label %SetFrame.exit, label %35

35:                                               ; preds = %GetFramePayload.exit.i.i
  %36 = getelementptr inbounds nuw i8, ptr %20, i64 %.018.i.i.i
  store i32 %7, ptr %0, align 8, !tbaa !60
  %37 = getelementptr inbounds nuw i8, ptr %0, i64 4
  store i32 %13, ptr %37, align 4, !tbaa !61
  %38 = load i32, ptr %.0.i.i, align 8, !tbaa !62
  %39 = getelementptr inbounds nuw i8, ptr %0, i64 8
  store i32 %38, ptr %39, align 8, !tbaa !63
  %40 = getelementptr inbounds nuw i8, ptr %.0.i.i, i64 4
  %41 = load i32, ptr %40, align 4, !tbaa !64
  %42 = getelementptr inbounds nuw i8, ptr %0, i64 12
  store i32 %41, ptr %42, align 4, !tbaa !65
  %43 = getelementptr inbounds nuw i8, ptr %.0.i.i, i64 8
  %44 = load i32, ptr %43, align 8, !tbaa !33
  %45 = getelementptr inbounds nuw i8, ptr %0, i64 16
  store i32 %44, ptr %45, align 8, !tbaa !66
  %46 = getelementptr inbounds nuw i8, ptr %.0.i.i, i64 12
  %47 = load i32, ptr %46, align 4, !tbaa !36
  %48 = getelementptr inbounds nuw i8, ptr %0, i64 20
  store i32 %47, ptr %48, align 4, !tbaa !67
  %49 = getelementptr inbounds nuw i8, ptr %.0.i.i, i64 16
  %50 = load i32, ptr %49, align 8, !tbaa !38
  %51 = getelementptr inbounds nuw i8, ptr %0, i64 56
  store i32 %50, ptr %51, align 8, !tbaa !68
  %52 = getelementptr inbounds nuw i8, ptr %.0.i.i, i64 20
  %53 = load i32, ptr %52, align 4, !tbaa !69
  %54 = getelementptr inbounds nuw i8, ptr %0, i64 24
  store i32 %53, ptr %54, align 8, !tbaa !70
  %55 = getelementptr inbounds nuw i8, ptr %.0.i.i, i64 24
  %56 = load i32, ptr %55, align 8, !tbaa !71
  %57 = getelementptr inbounds nuw i8, ptr %0, i64 28
  store i32 %56, ptr %57, align 4, !tbaa !72
  %58 = getelementptr inbounds nuw i8, ptr %.0.i.i, i64 28
  %59 = load i32, ptr %58, align 4, !tbaa !73
  %60 = getelementptr inbounds nuw i8, ptr %0, i64 60
  store i32 %59, ptr %60, align 4, !tbaa !74
  %61 = getelementptr inbounds nuw i8, ptr %.0.i.i, i64 36
  %62 = load i32, ptr %61, align 4, !tbaa !40
  %63 = getelementptr inbounds nuw i8, ptr %0, i64 32
  store i32 %62, ptr %63, align 8, !tbaa !75
  %64 = getelementptr inbounds nuw i8, ptr %0, i64 40
  store ptr %36, ptr %64, align 8, !tbaa !76
  %65 = getelementptr inbounds nuw i8, ptr %0, i64 48
  store i64 %.030.i.i, ptr %65, align 8, !tbaa !77
  br label %SetFrame.exit

SetFrame.exit:                                    ; preds = %.preheader, %35, %GetFramePayload.exit.i.i, %11, %6, %3, %1
  %.0 = phi i32 [ 0, %1 ], [ 0, %3 ], [ 0, %6 ], [ 0, %11 ], [ 1, %35 ], [ 0, %GetFramePayload.exit.i.i ], [ 0, %.preheader ]
  ret i32 %.0
}